target datalayout = "e-m:e-p270:32:32-p271:32:32-p272:64:64-i64:64-i128:128-f80:128-n8:16:32:64-S128"
target triple = "x86_64-pc-linux-gnu"

%struct.RsaKey = type { %struct.sp_int, %struct.sp_int, %struct.sp_int, %struct.sp_int, %struct.sp_int, %struct.sp_int, %struct.sp_int, %struct.sp_int, ptr, ptr, i32, i32, i32, ptr, i8 }
%struct.sp_int = type { i16, i16, [129 x i64] }

; Function Attrs: nounwind uwtable
define internal i32 @RsaFunctionSync(ptr noundef %0, i32 noundef %1, ptr noundef %2, ptr noundef %3, i32 noundef %4, ptr noundef %5, ptr noundef %6) #0 {
  %8 = alloca ptr, align 8
  %9 = alloca i32, align 4
  %10 = alloca ptr, align 8
  %11 = alloca ptr, align 8
  %12 = alloca i32, align 4
  %13 = alloca ptr, align 8
  %14 = alloca ptr, align 8
  %15 = alloca ptr, align 8
  %16 = alloca i64, align 8
  %17 = alloca ptr, align 8
  %18 = alloca i32, align 4
  store ptr %0, ptr %8, align 8, !tbaa !27
  store i32 %1, ptr %9, align 4, !tbaa !7
  store ptr %2, ptr %10, align 8, !tbaa !27
  store ptr %3, ptr %11, align 8, !tbaa !9
  store i32 %4, ptr %12, align 4, !tbaa !7
  store ptr %5, ptr %13, align 8, !tbaa !11
  store ptr %6, ptr %14, align 8, !tbaa !29
  %19 = load ptr, ptr %13, align 8, !tbaa !11
  %20 = getelementptr inbounds nuw %struct.RsaKey, ptr %19, i32 0, i32 0
  %21 = getelementptr inbounds nuw %struct.sp_int, ptr %20, i32 0, i32 0
  %22 = load i16, ptr %21, align 8, !tbaa !39
  %23 = zext i16 %22 to i32
  %24 = mul nsw i32 %23, 64
  %25 = add nsw i32 %24, 64
  %26 = sub nsw i32 %25, 1
  %27 = sdiv i32 %26, 64
  %28 = mul nsw i32 %27, 2
  %29 = add nsw i32 %28, 1
  %30 = icmp ule i32 %29, 1
  br i1 %30, label %31, label %32

31:                                               ; preds = %7
  br label %46

32:                                               ; preds = %7
  %33 = load ptr, ptr %13, align 8, !tbaa !11
  %34 = getelementptr inbounds nuw %struct.RsaKey, ptr %33, i32 0, i32 0
  %35 = getelementptr inbounds nuw %struct.sp_int, ptr %34, i32 0, i32 0
  %36 = load i16, ptr %35, align 8, !tbaa !39
  %37 = zext i16 %36 to i32
  %38 = mul nsw i32 %37, 64
  %39 = add nsw i32 %38, 64
  %40 = sub nsw i32 %39, 1
  %41 = sdiv i32 %40, 64
  %42 = mul nsw i32 %41, 2
  %43 = add nsw i32 %42, 1
  %44 = sub i32 %43, 1
  %45 = zext i32 %44 to i64
  br label %46

46:                                               ; preds = %32, %31
  %47 = phi i64 [ 0, %31 ], [ %45, %32 ]
  %48 = mul i64 %47, 8
  %49 = add i64 16, %48
  %50 = call ptr @llvm.stacksave.p0()
  store ptr %50, ptr %15, align 8
  %51 = alloca i8, i64 %49, align 16
  store i64 %49, ptr %16, align 8
  call void @llvm.lifetime.start.p0(i64 8, ptr %17) #8
  store ptr %51, ptr %17, align 8, !tbaa !40
  call void @llvm.lifetime.start.p0(i64 4, ptr %18) #8
  store i32 0, ptr %18, align 4, !tbaa !7
  %52 = load ptr, ptr %17, align 8, !tbaa !40
  %53 = load ptr, ptr %13, align 8, !tbaa !11
  %54 = getelementptr inbounds nuw %struct.RsaKey, ptr %53, i32 0, i32 0
  %55 = getelementptr inbounds nuw %struct.sp_int, ptr %54, i32 0, i32 0
  %56 = load i16, ptr %55, align 8, !tbaa !39
  %57 = zext i16 %56 to i32
  %58 = mul nsw i32 %57, 64
  %59 = add nsw i32 %58, 64
  %60 = sub nsw i32 %59, 1
  %61 = sdiv i32 %60, 64
  %62 = mul nsw i32 %61, 2
  %63 = add nsw i32 %62, 1
  %64 = icmp ule i32 %63, 1
  br i1 %64, label %65, label %66

65:                                               ; preds = %46
  br label %80

66:                                               ; preds = %46
  %67 = load ptr, ptr %13, align 8, !tbaa !11
  %68 = getelementptr inbounds nuw %struct.RsaKey, ptr %67, i32 0, i32 0
  %69 = getelementptr inbounds nuw %struct.sp_int, ptr %68, i32 0, i32 0
  %70 = load i16, ptr %69, align 8, !tbaa !39
  %71 = zext i16 %70 to i32
  %72 = mul nsw i32 %71, 64
  %73 = add nsw i32 %72, 64
  %74 = sub nsw i32 %73, 1
  %75 = sdiv i32 %74, 64
  %76 = mul nsw i32 %75, 2
  %77 = add nsw i32 %76, 1
  %78 = sub i32 %77, 1
  %79 = zext i32 %78 to i64
  br label %80

80:                                               ; preds = %66, %65
  %81 = phi i64 [ 0, %65 ], [ %79, %66 ]
  %82 = mul i64 %81, 8
  %83 = add i64 16, %82
  call void @llvm.memset.p0.i64(ptr align 8 %52, i8 0, i64 %83, i1 false)
  %84 = load ptr, ptr %17, align 8, !tbaa !40
  %85 = load ptr, ptr %13, align 8, !tbaa !11
  %86 = getelementptr inbounds nuw %struct.RsaKey, ptr %85, i32 0, i32 0
  %87 = getelementptr inbounds nuw %struct.sp_int, ptr %86, i32 0, i32 0
  %88 = load i16, ptr %87, align 8, !tbaa !39
  %89 = zext i16 %88 to i32
  %90 = mul nsw i32 %89, 64
  %91 = add nsw i32 %90, 64
  %92 = sub nsw i32 %91, 1
  %93 = sdiv i32 %92, 64
  %94 = mul nsw i32 %93, 2
  %95 = add nsw i32 %94, 1
  %96 = call i32 @sp_init_size(ptr noundef %84, i32 noundef %95)
  %97 = icmp ne i32 %96, 0
  br i1 %97, label %98, label %102

98:                                               ; preds = %80
  br label %99

99:                                               ; preds = %98
  br label %100

100:                                              ; preds = %99
  br label %101

101:                                              ; preds = %100
  store i32 -110, ptr %18, align 4, !tbaa !7
  br label %102

102:                                              ; preds = %101, %80
  %103 = load i32, ptr %18, align 4, !tbaa !7
  %104 = icmp eq i32 %103, 0
  br i1 %104, label %105, label %112

105:                                              ; preds = %102
  %106 = load ptr, ptr %17, align 8, !tbaa !40
  %107 = load ptr, ptr %8, align 8, !tbaa !27
  %108 = load i32, ptr %9, align 4, !tbaa !7
  %109 = call i32 @sp_read_unsigned_bin(ptr noundef %106, ptr noundef %107, i32 noundef %108)
  %110 = icmp ne i32 %109, 0
  br i1 %110, label %111, label %112

111:                                              ; preds = %105
  store i32 -111, ptr %18, align 4, !tbaa !7
  br label %112

112:                                              ; preds = %111, %105, %102
  %113 = load i32, ptr %18, align 4, !tbaa !7
  %114 = icmp eq i32 %113, 0
  br i1 %114, label %115, label %138

115:                                              ; preds = %112
  %116 = load i32, ptr %12, align 4, !tbaa !7
  switch i32 %116, label %136 [
    i32 3, label %117
    i32 2, label %117
    i32 0, label %122
    i32 1, label %122
  ]

117:                                              ; preds = %115, %115
  %118 = load ptr, ptr %17, align 8, !tbaa !40
  %119 = load ptr, ptr %13, align 8, !tbaa !11
  %120 = load ptr, ptr %14, align 8, !tbaa !29
  %121 = call i32 @RsaFunctionPrivate(ptr noundef %118, ptr noundef %119, ptr noundef %120)
  store i32 %121, ptr %18, align 4, !tbaa !7
  br label %137

122:                                              ; preds = %115, %115
  %123 = load ptr, ptr %17, align 8, !tbaa !40
  %124 = load ptr, ptr %13, align 8, !tbaa !11
  %125 = getelementptr inbounds nuw %struct.RsaKey, ptr %124, i32 0, i32 1
  %126 = load ptr, ptr %13, align 8, !tbaa !11
  %127 = getelementptr inbounds nuw %struct.RsaKey, ptr %126, i32 0, i32 0
  %128 = load ptr, ptr %17, align 8, !tbaa !40
  %129 = call i32 @sp_exptmod_nct(ptr noundef %123, ptr noundef %125, ptr noundef %127, ptr noundef %128)
  %130 = icmp ne i32 %129, 0
  br i1 %130, label %131, label %135

131:                                              ; preds = %122
  br label %132

132:                                              ; preds = %131
  br label %133

133:                                              ; preds = %132
  br label %134

134:                                              ; preds = %133
  store i32 -112, ptr %18, align 4, !tbaa !7
  br label %135

135:                                              ; preds = %134, %122
  br label %137

136:                                              ; preds = %115
  store i32 -130, ptr %18, align 4, !tbaa !7
  br label %137

137:                                              ; preds = %136, %135, %117
  br label %138

138:                                              ; preds = %137, %112
  %139 = load i32, ptr %18, align 4, !tbaa !7
  %140 = icmp eq i32 %139, 0
  br i1 %140, label %141, label %156

141:                                              ; preds = %138
  br label %142

142:                                              ; preds = %141
  br label %143

143:                                              ; preds = %142
  br label %144

144:                                              ; preds = %143
  %145 = load ptr, ptr %17, align 8, !tbaa !40
  %146 = load ptr, ptr %10, align 8, !tbaa !27
  %147 = load ptr, ptr %11, align 8, !tbaa !9
  %148 = load i32, ptr %147, align 4, !tbaa !7
  %149 = call i32 @sp_to_unsigned_bin_len_ct(ptr noundef %145, ptr noundef %146, i32 noundef %148)
  %150 = icmp ne i32 %149, 0
  br i1 %150, label %151, label %155

151:                                              ; preds = %144
  br label %152

152:                                              ; preds = %151
  br label %153

153:                                              ; preds = %152
  br label %154

154:                                              ; preds = %153
  store i32 -113, ptr %18, align 4, !tbaa !7
  br label %155

155:                                              ; preds = %154, %144
  br label %156

156:                                              ; preds = %155, %138
  %157 = load ptr, ptr %17, align 8, !tbaa !40
  call void @sp_forcezero(ptr noundef %157)
  br label %158

158:                                              ; preds = %156
  br label %159

159:                                              ; preds = %158
  br label %160

160:                                              ; preds = %159
  %161 = load i32, ptr %18, align 4, !tbaa !7
  call void @llvm.lifetime.end.p0(i64 4, ptr %18) #8
  call void @llvm.lifetime.end.p0(i64 8, ptr %17) #8
  %162 = load ptr, ptr %15, align 8
  call void @llvm.stackrestore.p0(ptr %162)
  ret i32 %161
}