; Function Attrs: nounwind uwtable
define internal fastcc i32 @RsaFunctionSync(ptr noundef nonnull %0, i32 noundef range(i32 1, -2147483648) %1, ptr noundef nonnull %2, ptr noundef readonly captures(none) %3, i32 noundef range(i32 0, -1) %4, ptr noundef nonnull %5, ptr noundef %6) unnamed_addr #0 {
  %8 = load i16, ptr %5, align 8, !tbaa !38
  %9 = zext i16 %8 to i64
  %10 = shl nuw nsw i64 %9, 4
  %11 = add nuw nsw i64 %10, 16
  %12 = alloca i8, i64 %11, align 16
  call void @llvm.memset.p0.i64(ptr noundef nonnull align 16 dereferenceable(1) %12, i8 0, i64 %11, i1 false)
  %13 = zext i16 %8 to i32
  %14 = shl nuw nsw i32 %13, 1
  %15 = or disjoint i32 %14, 1
  %16 = call i32 @sp_init_size(ptr noundef nonnull %12, i32 noundef %15) #12
  %.not = icmp eq i32 %16, 0
  br i1 %.not, label %17, label %.thread35

17:                                               ; preds = %7
  %18 = call i32 @sp_read_unsigned_bin(ptr noundef nonnull %12, ptr noundef nonnull %0, i32 noundef %1) #12
  %.not26 = icmp eq i32 %18, 0
  br i1 %.not26, label %.thread, label %.thread35

.thread:                                          ; preds = %17
  switch i32 %4, label %.thread35 [
    i32 3, label %22
    i32 2, label %22
    i32 0, label %19
    i32 1, label %19
  ]

19:                                               ; preds = %.thread, %.thread
  %20 = getelementptr inbounds nuw i8, ptr %5, i64 1040
  %21 = call i32 @sp_exptmod_nct(ptr noundef nonnull %12, ptr noundef nonnull %20, ptr noundef nonnull %5, ptr noundef nonnull %12) #12
  %.not27 = icmp eq i32 %21, 0
  br i1 %.not27, label %.thread37, label %.thread35

22:                                               ; preds = %.thread, %.thread
  %23 = call fastcc i32 @RsaFunctionPrivate(ptr noundef %12, ptr noundef %5, ptr noundef %6)
  %24 = icmp eq i32 %23, 0
  br i1 %24, label %.thread37, label %.thread35

.thread37:                                        ; preds = %19, %22
  %25 = load i32, ptr %3, align 4, !tbaa !15
  %26 = call i32 @sp_to_unsigned_bin_len_ct(ptr noundef nonnull %12, ptr noundef nonnull %2, i32 noundef %25) #12
  %.not28 = icmp eq i32 %26, 0
  %spec.select30 = select i1 %.not28, i32 0, i32 -113
  br label %.thread35

.thread35:                                        ; preds = %7, %17, %.thread, %19, %.thread37, %22
  %.3 = phi i32 [ %23, %22 ], [ %spec.select30, %.thread37 ], [ -130, %.thread ], [ -112, %19 ], [ -111, %17 ], [ -110, %7 ]
  call void @sp_forcezero(ptr noundef nonnull %12) #12
  ret i32 %.3
}